target datalayout = "e-m:e-p270:32:32-p271:32:32-p272:64:64-i64:64-i128:128-f80:128-n8:16:32:64-S128"
target triple = "x86_64-unknown-linux-gnu"

@_ZN7datalog30finite_product_relation_pluginC1ERNS_15relation_pluginERNS_16relation_managerE = hidden unnamed_addr alias void (ptr, ptr, ptr), ptr @_ZN7datalog30finite_product_relation_pluginC2ERNS_15relation_pluginERNS_16relation_managerE

; Function Attrs: mustprogress uwtable
define linkonce_odr hidden void @_ZN7datalog16relation_manager15register_pluginEPNS_15relation_pluginE(ptr noundef nonnull align 8 dereferenceable(200) %this, ptr noundef %plugin) #4 comdat align 2 {
entry:
  %this.addr = alloca ptr, align 8
  %plugin.addr = alloca ptr, align 8
  store ptr %this, ptr %this.addr, align 8
  store ptr %plugin, ptr %plugin.addr, align 8
  %this1 = load ptr, ptr %this.addr, align 8
  %0 = load ptr, ptr %plugin.addr, align 8
  call void @_ZN7datalog16relation_manager29register_relation_plugin_implEPNS_15relation_pluginE(ptr noundef nonnull align 8 dereferenceable(200) %this1, ptr noundef %0)
  ret void
}

; Function Attrs: mustprogress uwtable
define hidden noundef nonnull align 8 dereferenceable(112) ptr @_ZN7datalog30finite_product_relation_plugin10get_pluginERNS_16relation_managerERNS_15relation_pluginE(ptr noundef nonnull align 8 dereferenceable(200) %rmgr, ptr noundef nonnull align 8 dereferenceable(36) %inner) #4 align 2 {
entry:
  %rmgr.addr = alloca ptr, align 8
  %inner.addr = alloca ptr, align 8
  %res = alloca ptr, align 8
  store ptr %rmgr, ptr %rmgr.addr, align 8
  store ptr %inner, ptr %inner.addr, align 8
  %0 = load ptr, ptr %rmgr.addr, align 8
  %1 = load ptr, ptr %inner.addr, align 8
  %call = call noundef zeroext i1 @_ZN7datalog16relation_manager38try_get_finite_product_relation_pluginERKNS_15relation_pluginERPNS_30finite_product_relation_pluginE(ptr noundef nonnull align 8 dereferenceable(200) %0, ptr noundef nonnull align 8 dereferenceable(36) %1, ptr noundef nonnull align 8 dereferenceable(8) %res)
  br i1 %call, label %if.end, label %if.then

if.then:                                          ; preds = %entry
  %call1 = call noalias noundef ptr @_ZN6memory8allocateEm(i64 noundef 112)
  %2 = load ptr, ptr %inner.addr, align 8
  %3 = load ptr, ptr %rmgr.addr, align 8
  call void @_ZN7datalog30finite_product_relation_pluginC1ERNS_15relation_pluginERNS_16relation_managerE(ptr noundef nonnull align 8 dereferenceable(112) %call1, ptr noundef nonnull align 8 dereferenceable(36) %2, ptr noundef nonnull align 8 dereferenceable(200) %3)
  store ptr %call1, ptr %res, align 8
  %4 = load ptr, ptr %rmgr.addr, align 8
  %5 = load ptr, ptr %res, align 8
  call void @_ZN7datalog16relation_manager15register_pluginEPNS_15relation_pluginE(ptr noundef nonnull align 8 dereferenceable(200) %4, ptr noundef %5)
  br label %if.end

if.end:                                           ; preds = %if.then, %entry
  %6 = load ptr, ptr %res, align 8
  ret ptr %6
}