; Function Attrs: mustprogress uwtable
define hidden noundef nonnull align 8 dereferenceable(112) ptr @_ZN7datalog30finite_product_relation_plugin10get_pluginERNS_16relation_managerERNS_15relation_pluginE(ptr noundef nonnull align 8 dereferenceable(200) %rmgr, ptr noundef nonnull align 8 dereferenceable(36) %inner) local_unnamed_addr #3 align 2 personality ptr @__gxx_personality_v0 {
entry:
  %res = alloca ptr, align 8
  %call = call noundef zeroext i1 @_ZN7datalog16relation_manager38try_get_finite_product_relation_pluginERKNS_15relation_pluginERPNS_30finite_product_relation_pluginE(ptr noundef nonnull align 8 dereferenceable(200) %rmgr, ptr noundef nonnull align 8 dereferenceable(36) %inner, ptr noundef nonnull align 8 dereferenceable(8) %res)
  br i1 %call, label %if.end, label %if.then

if.then:                                          ; preds = %entry
  %call1 = call noalias noundef ptr @_ZN6memory8allocateEm(i64 noundef 112)
  %call.i = call ptr @_ZN7datalog30finite_product_relation_plugin8get_nameERNS_15relation_pluginE(ptr noundef nonnull align 8 dereferenceable(36) %inner)
  %m_kind.i.i.i = getelementptr inbounds i8, ptr %call1, i64 8
  store i32 -1, ptr %m_kind.i.i.i, align 8
  %m_name.i.i.i = getelementptr inbounds i8, ptr %call1, i64 16
  %0 = ptrtoint ptr %call.i to i64
  store i64 %0, ptr %m_name.i.i.i, align 8
  %m_manager.i.i.i = getelementptr inbounds i8, ptr %call1, i64 24
  store ptr %rmgr, ptr %m_manager.i.i.i, align 8
  %m_special_type.i.i = getelementptr inbounds i8, ptr %call1, i64 32
  store i32 2, ptr %m_special_type.i.i, align 8
  store ptr getelementptr inbounds ({ [28 x ptr] }, ptr @_ZTVN7datalog30finite_product_relation_pluginE, i64 0, i32 0, i64 2), ptr %call1, align 8
  %m_inner_plugin.i = getelementptr inbounds i8, ptr %call1, i64 40
  store ptr %inner, ptr %m_inner_plugin.i, align 8
  %m_spec_store.i = getelementptr inbounds i8, ptr %call1, i64 48
  store ptr %call1, ptr %m_spec_store.i, align 8
  %m_allocated_kinds.i.i = getelementptr inbounds i8, ptr %call1, i64 56
  store ptr null, ptr %m_allocated_kinds.i.i, align 8
  %m_kind_assignment.i.i = getelementptr inbounds i8, ptr %call1, i64 64
  %call.i.i.i.i.i2.i.i = invoke noalias noundef ptr @_ZN6memory8allocateEm(i64 noundef 192)
          to label %invoke.cont.i.i unwind label %lpad.i.i

invoke.cont.i.i:                                  ; preds = %if.then
  call void @llvm.memset.p0.i64(ptr noundef nonnull align 8 dereferenceable(192) %call.i.i.i.i.i2.i.i, i8 0, i64 192, i1 false)
  store ptr %call.i.i.i.i.i2.i.i, ptr %m_kind_assignment.i.i, align 8
  %m_capacity.i.i.i.i.i = getelementptr inbounds i8, ptr %call1, i64 72
  store i32 8, ptr %m_capacity.i.i.i.i.i, align 8
  %m_size.i.i.i.i.i = getelementptr inbounds i8, ptr %call1, i64 76
  store i32 0, ptr %m_size.i.i.i.i.i, align 4
  %m_num_deleted.i.i.i.i.i = getelementptr inbounds i8, ptr %call1, i64 80
  store i32 0, ptr %m_num_deleted.i.i.i.i.i, align 8
  %call.i.i.i.i.i6.i.i = invoke noalias noundef ptr @_ZN6memory8allocateEm(i64 noundef 192)
          to label %_ZN7datalog30finite_product_relation_pluginC2ERNS_15relation_pluginERNS_16relation_managerE.exit unwind label %lpad5.i.i

lpad.i.i:                                         ; preds = %if.then
  %1 = landingpad { ptr, i32 }
          cleanup
  br label %ehcleanup.i.i

lpad5.i.i:                                        ; preds = %invoke.cont.i.i
  %2 = landingpad { ptr, i32 }
          cleanup
  call void @_ZN3mapIN7datalog18relation_signatureEPS_INS0_30finite_product_relation_plugin8rel_specEjNS3_4hashE10default_eqIS3_EENS1_4hashENS1_2eqEED2Ev(ptr noundef nonnull align 8 dereferenceable(24) %m_kind_assignment.i.i) #20
  br label %ehcleanup.i.i

ehcleanup.i.i:                                    ; preds = %lpad5.i.i, %lpad.i.i
  %.pn.i.i = phi { ptr, i32 } [ %2, %lpad5.i.i ], [ %1, %lpad.i.i ]
  call void @_ZN7svectorIijED2Ev(ptr noundef nonnull align 8 dereferenceable(8) %m_allocated_kinds.i.i) #20
  resume { ptr, i32 } %.pn.i.i

_ZN7datalog30finite_product_relation_pluginC2ERNS_15relation_pluginERNS_16relation_managerE.exit: ; preds = %invoke.cont.i.i
  %m_kind_specs.i.i = getelementptr inbounds i8, ptr %call1, i64 88
  call void @llvm.memset.p0.i64(ptr noundef nonnull align 8 dereferenceable(192) %call.i.i.i.i.i6.i.i, i8 0, i64 192, i1 false)
  store ptr %call.i.i.i.i.i6.i.i, ptr %m_kind_specs.i.i, align 8
  %m_capacity.i.i.i3.i.i = getelementptr inbounds i8, ptr %call1, i64 96
  store i32 8, ptr %m_capacity.i.i.i3.i.i, align 8
  %m_size.i.i.i4.i.i = getelementptr inbounds i8, ptr %call1, i64 100
  store i32 0, ptr %m_size.i.i.i4.i.i, align 4
  %m_num_deleted.i.i.i5.i.i = getelementptr inbounds i8, ptr %call1, i64 104
  store i32 0, ptr %m_num_deleted.i.i.i5.i.i, align 8
  store ptr %call1, ptr %res, align 8
  call void @_ZN7datalog16relation_manager29register_relation_plugin_implEPNS_15relation_pluginE(ptr noundef nonnull align 8 dereferenceable(200) %rmgr, ptr noundef nonnull %call1)
  br label %if.end

if.end:                                           ; preds = %_ZN7datalog30finite_product_relation_pluginC2ERNS_15relation_pluginERNS_16relation_managerE.exit, %entry
  %3 = load ptr, ptr %res, align 8
  ret ptr %3
}